target datalayout = "e-m:e-p270:32:32-p271:32:32-p272:64:64-i64:64-i128:128-f80:128-n8:16:32:64-S128"
target triple = "x86_64-pc-linux-gnu"

%struct.s_mmbuffer = type { ptr, i64 }

@.str.58 = private unnamed_addr constant [5 x i8] c"%.*s\00", align 1

; Function Attrs: nounwind uwtable
define internal i32 @show_outf(ptr noundef %0, ptr noundef %1, i32 noundef %2) #0 {
  %4 = alloca ptr, align 8
  %5 = alloca ptr, align 8
  %6 = alloca i32, align 4
  %7 = alloca i32, align 4
  store ptr %0, ptr %4, align 8, !tbaa !83
  store ptr %1, ptr %5, align 8, !tbaa !141
  store i32 %2, ptr %6, align 4, !tbaa !4
  call void @llvm.lifetime.start.p0(i64 4, ptr %7) #10
  store i32 0, ptr %7, align 4, !tbaa !4
  br label %8

8:                                                ; preds = %27, %3
  %9 = load i32, ptr %7, align 4, !tbaa !4
  %10 = load i32, ptr %6, align 4, !tbaa !4
  %11 = icmp slt i32 %9, %10
  br i1 %11, label %12, label %30

12:                                               ; preds = %8
  %13 = load ptr, ptr %5, align 8, !tbaa !141
  %14 = load i32, ptr %7, align 4, !tbaa !4
  %15 = sext i32 %14 to i64
  %16 = getelementptr inbounds %struct.s_mmbuffer, ptr %13, i64 %15
  %17 = getelementptr inbounds nuw %struct.s_mmbuffer, ptr %16, i32 0, i32 1
  %18 = load i64, ptr %17, align 8, !tbaa !143
  %19 = trunc i64 %18 to i32
  %20 = load ptr, ptr %5, align 8, !tbaa !141
  %21 = load i32, ptr %7, align 4, !tbaa !4
  %22 = sext i32 %21 to i64
  %23 = getelementptr inbounds %struct.s_mmbuffer, ptr %20, i64 %22
  %24 = getelementptr inbounds nuw %struct.s_mmbuffer, ptr %23, i32 0, i32 0
  %25 = load ptr, ptr %24, align 8, !tbaa !145
  %26 = call i32 (ptr, ...) @printf(ptr noundef @.str.58, i32 noundef %19, ptr noundef %25)
  br label %27

27:                                               ; preds = %12
  %28 = load i32, ptr %7, align 4, !tbaa !4
  %29 = add nsw i32 %28, 1
  store i32 %29, ptr %7, align 4, !tbaa !4
  br label %8, !llvm.loop !146

30:                                               ; preds = %8
  call void @llvm.lifetime.end.p0(i64 4, ptr %7) #10
  ret i32 0
}