; Function Attrs: nofree nounwind uwtable
define internal noundef i32 @show_outf(ptr readnone captures(none) %0, ptr noundef readonly captures(none) %1, i32 noundef %2) #12 {
  %4 = icmp sgt i32 %2, 0
  br i1 %4, label %.lr.ph.preheader, label %._crit_edge

.lr.ph.preheader:                                 ; preds = %3
  %wide.trip.count = zext nneg i32 %2 to i64
  br label %.lr.ph

.lr.ph:                                           ; preds = %.lr.ph.preheader, %.lr.ph
  %indvars.iv = phi i64 [ 0, %.lr.ph.preheader ], [ %indvars.iv.next, %.lr.ph ]
  %5 = getelementptr inbounds nuw %struct.s_mmbuffer, ptr %1, i64 %indvars.iv
  %6 = getelementptr inbounds nuw i8, ptr %5, i64 8
  %7 = load i64, ptr %6, align 8, !tbaa !117
  %8 = trunc i64 %7 to i32
  %9 = load ptr, ptr %5, align 8, !tbaa !119
  %10 = tail call i32 (ptr, ...) @printf(ptr noundef nonnull dereferenceable(1) @.str.58, i32 noundef %8, ptr noundef %9)
  %indvars.iv.next = add nuw nsw i64 %indvars.iv, 1
  %exitcond.not = icmp eq i64 %indvars.iv.next, %wide.trip.count
  br i1 %exitcond.not, label %._crit_edge, label %.lr.ph, !llvm.loop !120

._crit_edge:                                      ; preds = %.lr.ph, %3
  ret i32 0
}